target datalayout = "e-m:e-p270:32:32-p271:32:32-p272:64:64-i64:64-i128:128-f80:128-n8:16:32:64-S128"
target triple = "x86_64-pc-linux-gnu"

; Function Attrs: mustprogress uwtable
define internal noundef i64 @_ZL9fstFwritePKvmmP8_IO_FILE(ptr noundef %0, i64 noundef %1, i64 noundef %2, ptr noundef %3) #0 {
  %5 = alloca ptr, align 8
  %6 = alloca i64, align 8
  %7 = alloca i64, align 8
  %8 = alloca ptr, align 8
  store ptr %0, ptr %5, align 8, !tbaa !50
  store i64 %1, ptr %6, align 8, !tbaa !35
  store i64 %2, ptr %7, align 8, !tbaa !35
  store ptr %3, ptr %8, align 8, !tbaa !33
  %9 = load ptr, ptr %5, align 8, !tbaa !50
  %10 = load i64, ptr %6, align 8, !tbaa !35
  %11 = load i64, ptr %7, align 8, !tbaa !35
  %12 = load ptr, ptr %8, align 8, !tbaa !33
  %13 = call i64 @fwrite(ptr noundef %9, i64 noundef %10, i64 noundef %11, ptr noundef %12)
  ret i64 %13
}

; Function Attrs: mustprogress uwtable
define internal noundef i32 @_ZL15fstWriterVarintP8_IO_FILEm(ptr noundef %0, i64 noundef %1) #0 {
  %3 = alloca ptr, align 8
  %4 = alloca i64, align 8
  %5 = alloca i64, align 8
  %6 = alloca [10 x i8], align 1
  %7 = alloca ptr, align 8
  %8 = alloca i32, align 4
  store ptr %0, ptr %3, align 8, !tbaa !33
  store i64 %1, ptr %4, align 8, !tbaa !35
  call void @llvm.lifetime.start.p0(i64 8, ptr %5) #15
  call void @llvm.lifetime.start.p0(i64 10, ptr %6) #15
  call void @llvm.lifetime.start.p0(i64 8, ptr %7) #15
  %9 = getelementptr inbounds [10 x i8], ptr %6, i64 0, i64 0
  store ptr %9, ptr %7, align 8, !tbaa !6
  call void @llvm.lifetime.start.p0(i64 4, ptr %8) #15
  br label %10

10:                                               ; preds = %14, %2
  %11 = load i64, ptr %4, align 8, !tbaa !35
  %12 = lshr i64 %11, 7
  store i64 %12, ptr %5, align 8, !tbaa !35
  %13 = icmp ne i64 %12, 0
  br i1 %13, label %14, label %23

14:                                               ; preds = %10
  %15 = load i64, ptr %4, align 8, !tbaa !35
  %16 = trunc i64 %15 to i8
  %17 = zext i8 %16 to i32
  %18 = or i32 %17, 128
  %19 = trunc i32 %18 to i8
  %20 = load ptr, ptr %7, align 8, !tbaa !6
  %21 = getelementptr inbounds nuw i8, ptr %20, i32 1
  store ptr %21, ptr %7, align 8, !tbaa !6
  store i8 %19, ptr %20, align 1, !tbaa !34
  %22 = load i64, ptr %5, align 8, !tbaa !35
  store i64 %22, ptr %4, align 8, !tbaa !35
  br label %10, !llvm.loop !95

23:                                               ; preds = %10
  %24 = load i64, ptr %4, align 8, !tbaa !35
  %25 = trunc i64 %24 to i8
  %26 = load ptr, ptr %7, align 8, !tbaa !6
  %27 = getelementptr inbounds nuw i8, ptr %26, i32 1
  store ptr %27, ptr %7, align 8, !tbaa !6
  store i8 %25, ptr %26, align 1, !tbaa !34
  %28 = load ptr, ptr %7, align 8, !tbaa !6
  %29 = getelementptr inbounds [10 x i8], ptr %6, i64 0, i64 0
  %30 = ptrtoint ptr %28 to i64
  %31 = ptrtoint ptr %29 to i64
  %32 = sub i64 %30, %31
  %33 = trunc i64 %32 to i32
  store i32 %33, ptr %8, align 4, !tbaa !11
  %34 = getelementptr inbounds [10 x i8], ptr %6, i64 0, i64 0
  %35 = load i32, ptr %8, align 4, !tbaa !11
  %36 = sext i32 %35 to i64
  %37 = load ptr, ptr %3, align 8, !tbaa !33
  %38 = call noundef i64 @_ZL9fstFwritePKvmmP8_IO_FILE(ptr noundef %34, i64 noundef %36, i64 noundef 1, ptr noundef %37)
  %39 = load i32, ptr %8, align 4, !tbaa !11
  call void @llvm.lifetime.end.p0(i64 4, ptr %8) #15
  call void @llvm.lifetime.end.p0(i64 8, ptr %7) #15
  call void @llvm.lifetime.end.p0(i64 10, ptr %6) #15
  call void @llvm.lifetime.end.p0(i64 8, ptr %5) #15
  ret i32 %39
}