; Function Attrs: mustprogress nofree nounwind uwtable
define internal fastcc void @_ZL15fstWriterVarintP8_IO_FILEm(ptr noundef captures(none) %0, i64 noundef %1) unnamed_addr #14 {
  %3 = alloca [10 x i8], align 1
  call void @llvm.lifetime.start.p0(i64 10, ptr nonnull %3) #39
  %.not11 = icmp ult i64 %1, 128
  br i1 %.not11, label %._crit_edge, label %.lr.ph

.lr.ph:                                           ; preds = %2, %.lr.ph
  %.013 = phi i64 [ %4, %.lr.ph ], [ %1, %2 ]
  %.0912 = phi ptr [ %7, %.lr.ph ], [ %3, %2 ]
  %4 = lshr i64 %.013, 7
  %5 = trunc i64 %.013 to i8
  %6 = or i8 %5, -128
  %7 = getelementptr inbounds nuw i8, ptr %.0912, i64 1
  store i8 %6, ptr %.0912, align 1, !tbaa !6
  %.not = icmp ult i64 %.013, 16384
  br i1 %.not, label %._crit_edge, label %.lr.ph, !llvm.loop !58

._crit_edge:                                      ; preds = %.lr.ph, %2
  %.09.lcssa = phi ptr [ %3, %2 ], [ %7, %.lr.ph ]
  %.0.lcssa = phi i64 [ %1, %2 ], [ %4, %.lr.ph ]
  %8 = trunc nuw i64 %.0.lcssa to i8
  %9 = getelementptr inbounds nuw i8, ptr %.09.lcssa, i64 1
  store i8 %8, ptr %.09.lcssa, align 1, !tbaa !6
  %10 = ptrtoint ptr %9 to i64
  %11 = ptrtoint ptr %3 to i64
  %12 = sub i64 %10, %11
  %sext = shl i64 %12, 32
  %13 = ashr exact i64 %sext, 32
  %14 = call noundef i64 @fwrite(ptr noundef nonnull %3, i64 noundef %13, i64 noundef 1, ptr noundef %0)
  call void @llvm.lifetime.end.p0(i64 10, ptr nonnull %3) #39
  ret void
}